; Function Attrs: nounwind uwtable
define dso_local i64 @PyInterpreterState_GetID(ptr noundef readonly %0) local_unnamed_addr #1 {
  %2 = icmp eq ptr %0, null
  br i1 %2, label %3, label %5

3:                                                ; preds = %1
  %4 = load ptr, ptr @PyExc_RuntimeError, align 8, !tbaa !211
  tail call void @PyErr_SetString(ptr noundef %4, ptr noundef nonnull @.str.16) #16
  br label %8

5:                                                ; preds = %1
  %6 = getelementptr inbounds nuw i8, ptr %0, i64 7272
  %7 = load i64, ptr %6, align 8, !tbaa !205
  br label %8

8:                                                ; preds = %5, %3
  %.0 = phi i64 [ -1, %3 ], [ %7, %5 ]
  ret i64 %.0
}